
mor1kx-debugexceptsteptest.elf:     file format elf32-or32


Disassembly of section .vectors:

00000000 <.vectors>:
	...
 100:	18 00 00 00 	l.movhi r0,0x0
 104:	a8 20 00 01 	l.ori r1,r0,0x1
 108:	c0 00 08 11 	l.mtspr r0,r1,0x11
 10c:	c1 40 00 00 	l.mtspr r0,r0,0x5000
 110:	18 80 00 00 	l.movhi r4,0x0
 114:	a8 84 10 00 	l.ori r4,r4,0x1000
 118:	44 00 20 00 	l.jr r4
 11c:	15 00 00 00 	l.nop 0x0
	...
 200:	b5 20 00 20 	l.mfspr r9,r0,0x20
 204:	9d 29 00 04 	l.addi r9,r9,0x4
 208:	c0 00 48 20 	l.mtspr r0,r9,0x20
 20c:	9c 63 00 01 	l.addi r3,r3,0x1
 210:	24 00 00 00 	l.rfe 
	...
 500:	9c 63 00 01 	l.addi r3,r3,0x1
 504:	24 00 00 00 	l.rfe 
	...
 600:	b5 20 00 20 	l.mfspr r9,r0,0x20
 604:	9d 29 00 04 	l.addi r9,r9,0x4
 608:	c0 00 48 20 	l.mtspr r0,r9,0x20
 60c:	9c 63 00 01 	l.addi r3,r3,0x1
 610:	24 00 00 00 	l.rfe 
	...
 700:	b5 20 00 20 	l.mfspr r9,r0,0x20
 704:	9d 29 00 04 	l.addi r9,r9,0x4
 708:	c0 00 48 20 	l.mtspr r0,r9,0x20
 70c:	9c 63 00 01 	l.addi r3,r3,0x1
 710:	24 00 00 00 	l.rfe 
	...
 800:	15 00 00 01 	l.nop 0x1

Disassembly of section .text:

00001000 <_start>:
    1000:	04 00 00 02 	l.jal 1008 <_main>
    1004:	15 00 00 00 	l.nop 0x0

00001008 <_main>:
    1008:	18 40 80 00 	l.movhi r2,0x8000

0000100c <startwait>:
    100c:	84 20 00 08 	l.lwz r1,0x8(r0)
    1010:	e4 21 10 00 	l.sfne r1,r2
    1014:	13 ff ff fe 	l.bf 100c <startwait>
    1018:	15 00 00 00 	l.nop 0x0
    101c:	18 20 00 00 	l.movhi r1,0x0
    1020:	18 40 00 00 	l.movhi r2,0x0
    1024:	18 60 00 00 	l.movhi r3,0x0
    1028:	18 80 ee 00 	l.movhi r4,0xee00
    102c:	9c 21 00 01 	l.addi r1,r1,0x1
    1030:	44 00 20 00 	l.jr r4
    1034:	15 00 00 00 	l.nop 0x0
    1038:	9c 21 00 01 	l.addi r1,r1,0x1
    103c:	44 00 20 00 	l.jr r4
    1040:	15 00 00 00 	l.nop 0x0
    1044:	18 80 ee 00 	l.movhi r4,0xee00
    1048:	9c 21 00 01 	l.addi r1,r1,0x1
    104c:	85 04 00 00 	l.lwz r8,0x0(r4)
    1050:	15 00 00 00 	l.nop 0x0
    1054:	9c 21 00 01 	l.addi r1,r1,0x1
    1058:	85 04 00 00 	l.lwz r8,0x0(r4)
    105c:	15 00 00 00 	l.nop 0x0
    1060:	18 80 ee 00 	l.movhi r4,0xee00
    1064:	9c 21 00 01 	l.addi r1,r1,0x1
    1068:	85 04 00 01 	l.lwz r8,0x1(r4)
    106c:	15 00 00 00 	l.nop 0x0
    1070:	9c 21 00 01 	l.addi r1,r1,0x1
    1074:	85 04 00 03 	l.lwz r8,0x3(r4)
    1078:	15 00 00 00 	l.nop 0x0
    107c:	70 00 00 00 	l.cust1 
    1080:	9c 21 00 01 	l.addi r1,r1,0x1

00001084 <testresultcheck>:
    1084:	e4 01 18 00 	l.sfeq r1,r3
    1088:	0c 00 00 0d 	l.bnf 10bc <testfailed>
    108c:	15 00 00 00 	l.nop 0x0

00001090 <testfinishcheck>:
    1090:	a9 e0 00 04 	l.ori r15,r0,0x4
    1094:	84 6f 00 00 	l.lwz r3,0x0(r15)
    1098:	15 00 00 02 	l.nop 0x2
    109c:	19 c0 80 00 	l.movhi r14,0x8000
    10a0:	a9 ce 00 0d 	l.ori r14,r14,0xd
    10a4:	e4 03 70 00 	l.sfeq r3,r14
    10a8:	0f ff ff fa 	l.bnf 1090 <testfinishcheck>
    10ac:	15 00 00 00 	l.nop 0x0

000010b0 <testok>:
    10b0:	15 00 00 02 	l.nop 0x2
    10b4:	a8 60 00 00 	l.ori r3,r0,0x0
    10b8:	15 00 00 01 	l.nop 0x1

000010bc <testfailed>:
    10bc:	18 60 ba aa 	l.movhi r3,0xbaaa
    10c0:	a8 63 aa ad 	l.ori r3,r3,0xaaad
    10c4:	15 00 00 01 	l.nop 0x1

000010c8 <testfunc1>:
    10c8:	44 00 48 00 	l.jr r9
    10cc:	9c 21 00 01 	l.addi r1,r1,0x1

000010d0 <__CTOR_LIST__>:
	...

000010d8 <__CTOR_END__>:
	...
